target datalayout = "e-m:e-p270:32:32-p271:32:32-p272:64:64-i64:64-i128:128-f80:128-n8:16:32:64-S128"
target triple = "x86_64-pc-linux-gnu"

@git_gettext_enabled = external global i32, align 4

; Function Attrs: inlinehint nounwind uwtable
define internal ptr @Q_(ptr noundef %0, ptr noundef %1, i64 noundef %2) #5 {
  %4 = alloca ptr, align 8
  %5 = alloca ptr, align 8
  %6 = alloca ptr, align 8
  %7 = alloca i64, align 8
  store ptr %0, ptr %5, align 8, !tbaa !11
  store ptr %1, ptr %6, align 8, !tbaa !11
  store i64 %2, ptr %7, align 8, !tbaa !20
  %8 = load i32, ptr @git_gettext_enabled, align 4, !tbaa !9
  %9 = icmp ne i32 %8, 0
  br i1 %9, label %19, label %10

10:                                               ; preds = %3
  %11 = load i64, ptr %7, align 8, !tbaa !20
  %12 = icmp eq i64 %11, 1
  br i1 %12, label %13, label %15

13:                                               ; preds = %10
  %14 = load ptr, ptr %5, align 8, !tbaa !11
  br label %17

15:                                               ; preds = %10
  %16 = load ptr, ptr %6, align 8, !tbaa !11
  br label %17

17:                                               ; preds = %15, %13
  %18 = phi ptr [ %14, %13 ], [ %16, %15 ]
  store ptr %18, ptr %4, align 8
  br label %24

19:                                               ; preds = %3
  %20 = load ptr, ptr %5, align 8, !tbaa !11
  %21 = load ptr, ptr %6, align 8, !tbaa !11
  %22 = load i64, ptr %7, align 8, !tbaa !20
  %23 = call ptr @dcngettext(ptr noundef null, ptr noundef %20, ptr noundef %21, i64 noundef %22, i32 noundef 5) #10
  store ptr %23, ptr %4, align 8
  br label %24

24:                                               ; preds = %19, %17
  %25 = load ptr, ptr %4, align 8
  ret ptr %25
}