; Function Attrs: inlinehint nounwind uwtable
define internal fastcc ptr @Q_(i64 noundef %0) unnamed_addr #13 {
  %2 = load i32, ptr @git_gettext_enabled, align 4, !tbaa !55
  %.not = icmp eq i32 %2, 0
  br i1 %.not, label %3, label %6

3:                                                ; preds = %1
  %4 = icmp eq i64 %0, 1
  %5 = select i1 %4, ptr @.str.114, ptr @.str.115
  br label %8

6:                                                ; preds = %1
  %7 = tail call ptr @dcngettext(ptr noundef null, ptr noundef nonnull @.str.114, ptr noundef nonnull @.str.115, i64 noundef %0, i32 noundef 5) #17
  br label %8

8:                                                ; preds = %6, %3
  %.0 = phi ptr [ %7, %6 ], [ %5, %3 ]
  ret ptr %.0
}